target datalayout = "e-m:e-p270:32:32-p271:32:32-p272:64:64-i64:64-i128:128-f80:128-n8:16:32:64-S128"
target triple = "x86_64-pc-linux-gnu"

%"class.pbrt::Vector3" = type { %"class.pbrt::Tuple3.7" }
%"class.pbrt::Tuple3.7" = type { float, float, float }
%"class.pbrt::Primitive" = type { %"class.pbrt::TaggedPointer" }
%"class.pbrt::TaggedPointer" = type { i64 }
%"class.pbrt::AnimatedPrimitive" = type { %"class.pbrt::Primitive", %"class.pbrt::AnimatedTransform" }
%"class.pbrt::AnimatedTransform" = type { %"class.pbrt::Transform", %"class.pbrt::Transform", float, float, i8, [2 x %"class.pbrt::Vector3"], [2 x %"class.pbrt::Quaternion"], [2 x %"class.pbrt::SquareMatrix.18"], i8, [3 x %"struct.pbrt::AnimatedTransform::DerivativeTerm"], [3 x %"struct.pbrt::AnimatedTransform::DerivativeTerm"], [3 x %"struct.pbrt::AnimatedTransform::DerivativeTerm"], [3 x %"struct.pbrt::AnimatedTransform::DerivativeTerm"], [3 x %"struct.pbrt::AnimatedTransform::DerivativeTerm"] }
%"class.pbrt::Transform" = type { %"class.pbrt::SquareMatrix.18", %"class.pbrt::SquareMatrix.18" }
%"class.pbrt::SquareMatrix.18" = type { [4 x [4 x float]] }
%"class.pbrt::Quaternion" = type { %"class.pbrt::Vector3", float }
%"struct.pbrt::AnimatedTransform::DerivativeTerm" = type { float, float, float, float }

@_ZN4pbrtL15primitiveMemoryE = internal thread_local global i64 0, align 8
@.str = private unnamed_addr constant [120 x i8] c"generated/home/dtcxzyw/WorkSpace/Projects/compilers/llvm-opt-benchmark/bench/pbrt-v4/pbrt-v4/src/pbrt/cpu/primitive.cpp\00", align 1
@.str.11 = private unnamed_addr constant [17 x i8] c"Check failed: %s\00", align 1
@.str.12 = private unnamed_addr constant [33 x i8] c"renderFromPrimitive.IsAnimated()\00", align 1

; Function Attrs: mustprogress nounwind uwtable
define linkonce_odr dso_local void @_ZN4pbrt13TaggedPointerIJNS_15SimplePrimitiveENS_18GeometricPrimitiveENS_20TransformedPrimitiveENS_17AnimatedPrimitiveENS_12BVHAggregateENS_15KdTreeAggregateEEEC2ERKS7_(ptr noundef nonnull align 8 dereferenceable(8) %0, ptr noundef nonnull align 8 dereferenceable(8) %1) unnamed_addr #8 comdat align 2 {
  %3 = alloca ptr, align 8
  %4 = alloca ptr, align 8
  store ptr %0, ptr %3, align 8, !tbaa !16
  store ptr %1, ptr %4, align 8, !tbaa !16
  %5 = load ptr, ptr %3, align 8
  %6 = getelementptr inbounds nuw %"class.pbrt::TaggedPointer", ptr %5, i32 0, i32 0
  store i64 0, ptr %6, align 8, !tbaa !132
  %7 = load ptr, ptr %4, align 8, !tbaa !16
  %8 = getelementptr inbounds nuw %"class.pbrt::TaggedPointer", ptr %7, i32 0, i32 0
  %9 = load i64, ptr %8, align 8, !tbaa !132
  %10 = getelementptr inbounds nuw %"class.pbrt::TaggedPointer", ptr %5, i32 0, i32 0
  store i64 %9, ptr %10, align 8, !tbaa !132
  ret void
}

; Function Attrs: mustprogress nounwind uwtable
define linkonce_odr dso_local noundef zeroext i1 @_ZNK4pbrt17AnimatedTransform10IsAnimatedEv(ptr noundef nonnull align 4 dereferenceable(696) %0) #8 comdat align 2 {
  %2 = alloca ptr, align 8
  store ptr %0, ptr %2, align 8, !tbaa !121
  %3 = load ptr, ptr %2, align 8
  %4 = getelementptr inbounds nuw %"class.pbrt::AnimatedTransform", ptr %3, i32 0, i32 4
  %5 = load i8, ptr %4, align 4, !tbaa !126, !range !63, !noundef !64
  %6 = trunc i8 %5 to i1
  ret i1 %6
}

; Function Attrs: inlinehint mustprogress uwtable
define linkonce_odr dso_local void @_ZN4pbrt9PrimitiveC2ERKS0_(ptr noundef nonnull align 8 dereferenceable(8) %0, ptr noundef nonnull align 8 dereferenceable(8) %1) unnamed_addr #5 comdat align 2 {
  %3 = alloca ptr, align 8
  %4 = alloca ptr, align 8
  store ptr %0, ptr %3, align 8, !tbaa !14
  store ptr %1, ptr %4, align 8, !tbaa !14
  %5 = load ptr, ptr %3, align 8
  %6 = load ptr, ptr %4, align 8, !tbaa !14
  call void @_ZN4pbrt13TaggedPointerIJNS_15SimplePrimitiveENS_18GeometricPrimitiveENS_20TransformedPrimitiveENS_17AnimatedPrimitiveENS_12BVHAggregateENS_15KdTreeAggregateEEEC2ERKS7_(ptr noundef nonnull align 8 dereferenceable(8) %5, ptr noundef nonnull align 8 dereferenceable(8) %6)
  ret void
}

; Function Attrs: mustprogress uwtable
define dso_local void @_ZN4pbrt17AnimatedPrimitiveC2ENS_9PrimitiveERKNS_17AnimatedTransformE(ptr noundef nonnull align 8 dereferenceable(704) %0, ptr noundef %1, ptr noundef nonnull align 4 dereferenceable(696) %2) unnamed_addr #1 align 2 {
  %4 = alloca ptr, align 8
  %5 = alloca ptr, align 8
  %6 = alloca ptr, align 8
  store ptr %0, ptr %4, align 8, !tbaa !119
  store ptr %1, ptr %5, align 8, !tbaa !14
  store ptr %2, ptr %6, align 8, !tbaa !121
  %7 = load ptr, ptr %4, align 8
  %8 = getelementptr inbounds nuw %"class.pbrt::AnimatedPrimitive", ptr %7, i32 0, i32 0
  call void @_ZN4pbrt9PrimitiveC2ERKS0_(ptr noundef nonnull align 8 dereferenceable(8) %8, ptr noundef nonnull align 8 dereferenceable(8) %1)
  %9 = getelementptr inbounds nuw %"class.pbrt::AnimatedPrimitive", ptr %7, i32 0, i32 1
  %10 = load ptr, ptr %6, align 8, !tbaa !121
  call void @llvm.memcpy.p0.p0.i64(ptr align 8 %9, ptr align 4 %10, i64 696, i1 false), !tbaa.struct !123
  %11 = call align 8 ptr @llvm.threadlocal.address.p0(ptr align 8 @_ZN4pbrtL15primitiveMemoryE)
  %12 = load i64, ptr %11, align 8, !tbaa !34
  %13 = add i64 %12, 704
  store i64 %13, ptr %11, align 8, !tbaa !34
  %14 = load ptr, ptr %6, align 8, !tbaa !121
  %15 = call noundef zeroext i1 @_ZNK4pbrt17AnimatedTransform10IsAnimatedEv(ptr noundef nonnull align 4 dereferenceable(696) %14)
  br i1 %15, label %18, label %16

16:                                               ; preds = %3
  call void @_ZN4pbrt8LogFatalIJRA33_KcEEEvNS_8LogLevelEPS1_iS5_DpOT_(i32 noundef 2, ptr noundef @.str, i32 noundef 137, ptr noundef @.str.11, ptr noundef nonnull align 1 dereferenceable(33) @.str.12) #21
  unreachable

17:                                               ; No predecessors!
  br label %18

18:                                               ; preds = %17, %3
  ret void
}