; Function Attrs: mustprogress uwtable
define dso_local void @_ZN4pbrt17AnimatedPrimitiveC2ENS_9PrimitiveERKNS_17AnimatedTransformE(ptr noundef nonnull writeonly align 8 captures(none) dereferenceable(704) initializes((0, 704)) %0, ptr noundef readonly captures(none) %1, ptr noundef nonnull readonly align 4 captures(none) dereferenceable(696) %2) unnamed_addr #2 align 2 {
  store i64 0, ptr %0, align 8, !tbaa !4
  %4 = load i64, ptr %1, align 8, !tbaa !4
  store i64 %4, ptr %0, align 8, !tbaa !4
  %5 = getelementptr inbounds nuw i8, ptr %0, i64 8
  tail call void @llvm.memcpy.p0.p0.i64(ptr noundef nonnull align 8 dereferenceable(696) %5, ptr noundef nonnull align 4 dereferenceable(696) %2, i64 696, i1 false), !tbaa.struct !131
  %6 = tail call align 8 ptr @llvm.threadlocal.address.p0(ptr align 8 @_ZN4pbrtL15primitiveMemoryE)
  %7 = load i64, ptr %6, align 8, !tbaa !32
  %8 = add i64 %7, 704
  store i64 %8, ptr %6, align 8, !tbaa !32
  %9 = getelementptr inbounds nuw i8, ptr %2, i64 264
  %10 = load i8, ptr %9, align 4, !tbaa !133, !range !45, !noundef !46
  %11 = trunc nuw i8 %10 to i1
  br i1 %11, label %13, label %12

12:                                               ; preds = %3
  tail call void @_ZN4pbrt8LogFatalIJRA33_KcEEEvNS_8LogLevelEPS1_iS5_DpOT_(i32 noundef 2, ptr noundef nonnull @.str, i32 noundef 137, ptr noundef nonnull @.str.11, ptr noundef nonnull align 1 dereferenceable(33) @.str.12) #25
  unreachable

13:                                               ; preds = %3
  ret void
}